target datalayout = "e-m:e-p270:32:32-p271:32:32-p272:64:64-i64:64-i128:128-f80:128-n8:16:32:64-S128"
target triple = "x86_64-unknown-linux-gnu"

%"struct.node::AssertionInfo" = type { ptr, ptr, ptr }
%"class.node::StreamListener" = type { ptr, ptr, ptr }
%"class.node::ContainerOfHelper.264" = type { ptr }

@_ZZN4node10StreamPipe16WritableListener21OnStreamAfterShutdownEPNS_12ShutdownWrapEiE4args = internal constant %"struct.node::AssertionInfo" { ptr @.str.16, ptr @.str.9, ptr @.str.17 }, align 8

; Function Attrs: mustprogress nounwind uwtable
define linkonce_odr dso_local noundef i64 @_ZN4node8OffsetOfINS_10StreamPipe16WritableListenerES1_EEmMT0_T_(i64 %field) #4 comdat {
entry:
  %field.addr = alloca i64, align 8
  store i64 %field, ptr %field.addr, align 8
  %0 = load i64, ptr %field.addr, align 8
  %memptr.offset = getelementptr inbounds i8, ptr null, i64 %0
  %1 = ptrtoint ptr %memptr.offset to i64
  ret i64 %1
}

; Function Attrs: mustprogress nounwind uwtable
define linkonce_odr dso_local void @_ZN4node17ContainerOfHelperINS_10StreamPipe16WritableListenerES1_EC2EMS1_S2_PS2_(ptr noundef nonnull align 8 dereferenceable(8) %this, i64 %field, ptr noundef %pointer) unnamed_addr #4 comdat align 2 {
entry:
  %this.addr = alloca ptr, align 8
  %field.addr = alloca i64, align 8
  %pointer.addr = alloca ptr, align 8
  store ptr %this, ptr %this.addr, align 8
  store i64 %field, ptr %field.addr, align 8
  store ptr %pointer, ptr %pointer.addr, align 8
  %this1 = load ptr, ptr %this.addr, align 8
  %pointer_ = getelementptr inbounds %"class.node::ContainerOfHelper.264", ptr %this1, i32 0, i32 0
  %0 = load ptr, ptr %pointer.addr, align 8
  %1 = ptrtoint ptr %0 to i64
  %2 = load i64, ptr %field.addr, align 8
  %call = call noundef i64 @_ZN4node8OffsetOfINS_10StreamPipe16WritableListenerES1_EEmMT0_T_(i64 %2)
  %sub = sub i64 %1, %call
  %3 = inttoptr i64 %sub to ptr
  store ptr %3, ptr %pointer_, align 8
  ret void
}

; Function Attrs: mustprogress nounwind uwtable
define linkonce_odr dso_local noundef ptr @_ZNK4node17ContainerOfHelperINS_10StreamPipe16WritableListenerES1_EcvPT_IS1_EEv(ptr noundef nonnull align 8 dereferenceable(8) %this) #4 comdat align 2 {
entry:
  %this.addr = alloca ptr, align 8
  store ptr %this, ptr %this.addr, align 8
  %this1 = load ptr, ptr %this.addr, align 8
  %pointer_ = getelementptr inbounds %"class.node::ContainerOfHelper.264", ptr %this1, i32 0, i32 0
  %0 = load ptr, ptr %pointer_, align 8
  ret ptr %0
}

; Function Attrs: mustprogress nounwind uwtable
define linkonce_odr dso_local ptr @_ZN4node11ContainerOfINS_10StreamPipe16WritableListenerES1_EENS_17ContainerOfHelperIT_T0_EEMS5_S4_PS4_(i64 %field, ptr noundef %pointer) #4 comdat {
entry:
  %retval = alloca %"class.node::ContainerOfHelper.264", align 8
  %field.addr = alloca i64, align 8
  %pointer.addr = alloca ptr, align 8
  store i64 %field, ptr %field.addr, align 8
  store ptr %pointer, ptr %pointer.addr, align 8
  %0 = load i64, ptr %field.addr, align 8
  %1 = load ptr, ptr %pointer.addr, align 8
  call void @_ZN4node17ContainerOfHelperINS_10StreamPipe16WritableListenerES1_EC2EMS1_S2_PS2_(ptr noundef nonnull align 8 dereferenceable(8) %retval, i64 %0, ptr noundef %1)
  %coerce.dive = getelementptr inbounds %"class.node::ContainerOfHelper.264", ptr %retval, i32 0, i32 0
  %2 = load ptr, ptr %coerce.dive, align 8
  ret ptr %2
}

; Function Attrs: mustprogress nounwind uwtable
define dso_local void @_ZN4node10StreamPipe16WritableListener21OnStreamAfterShutdownEPNS_12ShutdownWrapEi(ptr noundef nonnull align 8 dereferenceable(24) %this, ptr noundef %w, i32 noundef %status) unnamed_addr #4 align 2 {
entry:
  %this.addr = alloca ptr, align 8
  %w.addr = alloca ptr, align 8
  %status.addr = alloca i32, align 4
  %pipe = alloca ptr, align 8
  %ref.tmp = alloca %"class.node::ContainerOfHelper.264", align 8
  %prev = alloca ptr, align 8
  store ptr %this, ptr %this.addr, align 8
  store ptr %w, ptr %w.addr, align 8
  store i32 %status, ptr %status.addr, align 4
  %this1 = load ptr, ptr %this.addr, align 8
  %call = call ptr @_ZN4node11ContainerOfINS_10StreamPipe16WritableListenerES1_EENS_17ContainerOfHelperIT_T0_EEMS5_S4_PS4_(i64 104, ptr noundef %this1)
  %coerce.dive = getelementptr inbounds %"class.node::ContainerOfHelper.264", ptr %ref.tmp, i32 0, i32 0
  store ptr %call, ptr %coerce.dive, align 8
  %call2 = call noundef ptr @_ZNK4node17ContainerOfHelperINS_10StreamPipe16WritableListenerES1_EcvPT_IS1_EEv(ptr noundef nonnull align 8 dereferenceable(8) %ref.tmp)
  store ptr %call2, ptr %pipe, align 8
  br label %do.body

do.body:                                          ; preds = %entry
  %previous_listener_ = getelementptr inbounds %"class.node::StreamListener", ptr %this1, i32 0, i32 2
  %0 = load ptr, ptr %previous_listener_, align 8
  %cmp = icmp ne ptr %0, null
  %lnot = xor i1 %cmp, true
  %lnot3 = xor i1 %lnot, true
  %lnot4 = xor i1 %lnot3, true
  br i1 %lnot4, label %if.then, label %if.end

if.then:                                          ; preds = %do.body
  br label %do.body5

do.body5:                                         ; preds = %if.then
  call void @_ZN4node6AssertERKNS_13AssertionInfoE(ptr noundef nonnull align 8 dereferenceable(24) @_ZZN4node10StreamPipe16WritableListener21OnStreamAfterShutdownEPNS_12ShutdownWrapEiE4args)
  call void @abort() #11
  unreachable

do.end:                                           ; No predecessors!
  br label %if.end

if.end:                                           ; preds = %do.end, %do.body
  br label %do.end6

do.end6:                                          ; preds = %if.end
  %previous_listener_7 = getelementptr inbounds %"class.node::StreamListener", ptr %this1, i32 0, i32 2
  %1 = load ptr, ptr %previous_listener_7, align 8
  store ptr %1, ptr %prev, align 8
  %2 = load ptr, ptr %pipe, align 8
  call void @_ZN4node10StreamPipe6UnpipeEb(ptr noundef nonnull align 8 dereferenceable(128) %2, i1 noundef zeroext false)
  %3 = load ptr, ptr %prev, align 8
  %4 = load ptr, ptr %w.addr, align 8
  %5 = load i32, ptr %status.addr, align 4
  %vtable = load ptr, ptr %3, align 8
  %vfn = getelementptr inbounds ptr, ptr %vtable, i64 5
  %6 = load ptr, ptr %vfn, align 8
  call void %6(ptr noundef nonnull align 8 dereferenceable(24) %3, ptr noundef %4, i32 noundef %5)
  ret void
}