; Function Attrs: mustprogress nounwind uwtable
define dso_local void @_ZN4node10StreamPipe16WritableListener21OnStreamAfterShutdownEPNS_12ShutdownWrapEi(ptr noundef nonnull align 8 dereferenceable(24) %this, ptr noundef %w, i32 noundef %status) unnamed_addr #3 align 2 {
entry:
  %previous_listener_ = getelementptr inbounds i8, ptr %this, i64 16
  %0 = load ptr, ptr %previous_listener_, align 8
  %cmp.not = icmp eq ptr %0, null
  br i1 %cmp.not, label %do.body5, label %do.end6

do.body5:                                         ; preds = %entry
  tail call void @_ZN4node6AssertERKNS_13AssertionInfoE(ptr noundef nonnull align 8 dereferenceable(24) @_ZZN4node10StreamPipe16WritableListener21OnStreamAfterShutdownEPNS_12ShutdownWrapEiE4args) #12
  tail call void @abort() #13
  unreachable

do.end6:                                          ; preds = %entry
  %1 = ptrtoint ptr %this to i64
  %sub.i.i = add i64 %1, -104
  %2 = inttoptr i64 %sub.i.i to ptr
  tail call void @_ZN4node10StreamPipe6UnpipeEb(ptr noundef nonnull align 8 dereferenceable(128) %2, i1 noundef zeroext false)
  %vtable = load ptr, ptr %0, align 8
  %vfn = getelementptr inbounds i8, ptr %vtable, i64 40
  %3 = load ptr, ptr %vfn, align 8
  tail call void %3(ptr noundef nonnull align 8 dereferenceable(24) %0, ptr noundef %w, i32 noundef %status) #12
  ret void
}